target datalayout = "e-m:e-p270:32:32-p271:32:32-p272:64:64-i64:64-i128:128-f80:128-n8:16:32:64-S128"
target triple = "x86_64-pc-linux-gnu"

%struct.GCRef = type { i64 }
%struct.GCstr = type { %struct.GCRef, i8, i8, i8, i8, i32, i32, i32 }
%struct.jit_State = type { %struct.GCtrace, ptr, ptr, ptr, ptr, ptr, ptr, i32, i32, i32, i8, i8, %struct.IRType1, i8, %struct.FoldState, ptr, i32, i32, i32, i32, i32, i32, i32, [1 x i32], [5 x %union.TValue], [3 x %union.TValue], ptr, i32, i32, i32, i32, ptr, ptr, i32, i32, i8, ptr, i32, i32, i16, [101 x i16], [258 x i32], [15 x i32], [16 x ptr], [64 x %struct.HotPenalty], i32, [16 x %struct.BPropEntry], i32, %struct.ScEvEntry, ptr, i32, i32, i32, ptr, i32, i32, ptr, ptr, ptr, i64, i64, %union.TValue, ptr, i32, i32 }
%struct.GCtrace = type { %struct.GCRef, i8, i8, i16, i32, i32, %struct.GCRef, ptr, i32, i32, ptr, ptr, %struct.GCRef, %struct.MRef, i32, i32, ptr, i32, i16, i16, i16, i16, i16, i16, i16, i8, i8, i8, i8 }
%struct.MRef = type { i64 }
%struct.IRType1 = type { i8 }
%struct.FoldState = type { %union.IRIns, [2 x %union.IRIns], [2 x %union.IRIns] }
%union.IRIns = type { %struct.GCRef }
%struct.HotPenalty = type { %struct.MRef, i16, i16 }
%struct.BPropEntry = type { i16, i16, i32 }
%struct.ScEvEntry = type { %struct.MRef, i16, i16, i16, i16, %struct.IRType1, i8 }
%union.TValue = type { i64 }
%struct.anon.2 = type { i16, i16, i16, i16 }
%struct.RecordFFData = type { ptr, i64, i32 }
%struct.lua_State = type { %struct.GCRef, i8, i8, i8, i8, %struct.MRef, %struct.GCRef, ptr, ptr, %struct.MRef, %struct.MRef, %struct.GCRef, %struct.GCRef, ptr, i32 }
%struct.GG_State = type { %struct.lua_State, %struct.global_State, %struct.jit_State, [64 x i16], [243 x ptr], [57 x i32] }
%struct.global_State = type { ptr, ptr, %struct.GCState, %struct.GCstr, i8, i8, i8, i8, %struct.StrInternState, i32, %struct.GCRef, %struct.SBuf, %union.TValue, %union.TValue, %struct.Node, %union.TValue, %struct.GCupval, i32, i32, ptr, ptr, ptr, i32, i32, %struct.GCRef, %struct.MRef, %struct.MRef, %struct.PRNGState, [39 x %struct.GCRef] }
%struct.GCState = type { i64, i64, i8, i8, i8, i8, i32, %struct.GCRef, %struct.MRef, %struct.GCRef, %struct.GCRef, %struct.GCRef, %struct.GCRef, i64, i64, i32, i32, %struct.MRef }
%struct.StrInternState = type { ptr, i32, i32, i32, i8, i8, i8, i8, i64 }
%struct.SBuf = type { ptr, ptr, ptr, %struct.MRef }
%struct.Node = type { %union.TValue, %union.TValue, %struct.MRef }
%struct.GCupval = type { %struct.GCRef, i8, i8, i8, i8, %union.anon, %struct.MRef, i32 }
%union.anon = type { %struct.anon.1 }
%struct.anon.1 = type { %struct.GCRef, %struct.GCRef }
%struct.PRNGState = type { [4 x i64] }
%struct.GCudata = type { %struct.GCRef, i8, i8, i8, i8, %struct.GCRef, i32, %struct.GCRef, i32 }
%struct.GCtab = type { %struct.GCRef, i8, i8, i8, i8, %struct.MRef, %struct.GCRef, %struct.GCRef, %struct.MRef, i32, i32, %struct.MRef }

; Function Attrs: alwaysinline nounwind uwtable
define internal void @lj_ir_set_(ptr noundef %0, i16 noundef zeroext %1, i16 noundef zeroext %2, i16 noundef zeroext %3) #1 {
  %5 = alloca ptr, align 8
  %6 = alloca i16, align 2
  %7 = alloca i16, align 2
  %8 = alloca i16, align 2
  store ptr %0, ptr %5, align 8, !tbaa !4
  store i16 %1, ptr %6, align 2, !tbaa !14
  store i16 %2, ptr %7, align 2, !tbaa !14
  store i16 %3, ptr %8, align 2, !tbaa !14
  %9 = load i16, ptr %6, align 2, !tbaa !14
  %10 = load ptr, ptr %5, align 8, !tbaa !4
  %11 = getelementptr inbounds nuw %struct.jit_State, ptr %10, i32 0, i32 14
  %12 = getelementptr inbounds nuw %struct.FoldState, ptr %11, i32 0, i32 0
  %13 = getelementptr inbounds nuw %struct.anon.2, ptr %12, i32 0, i32 2
  store i16 %9, ptr %13, align 4, !tbaa !13
  %14 = load i16, ptr %7, align 2, !tbaa !14
  %15 = load ptr, ptr %5, align 8, !tbaa !4
  %16 = getelementptr inbounds nuw %struct.jit_State, ptr %15, i32 0, i32 14
  %17 = getelementptr inbounds nuw %struct.FoldState, ptr %16, i32 0, i32 0
  %18 = getelementptr inbounds nuw %struct.anon.2, ptr %17, i32 0, i32 0
  store i16 %14, ptr %18, align 8, !tbaa !13
  %19 = load i16, ptr %8, align 2, !tbaa !14
  %20 = load ptr, ptr %5, align 8, !tbaa !4
  %21 = getelementptr inbounds nuw %struct.jit_State, ptr %20, i32 0, i32 14
  %22 = getelementptr inbounds nuw %struct.FoldState, ptr %21, i32 0, i32 0
  %23 = getelementptr inbounds nuw %struct.anon.2, ptr %22, i32 0, i32 1
  store i16 %19, ptr %23, align 2, !tbaa !13
  ret void
}

; Function Attrs: nounwind uwtable
define internal void @recff_debug_getmetatable(ptr noundef %0, ptr noundef %1) #0 {
  %3 = alloca ptr, align 8
  %4 = alloca ptr, align 8
  %5 = alloca ptr, align 8
  %6 = alloca i32, align 4
  %7 = alloca i32, align 4
  %8 = alloca i32, align 4
  store ptr %0, ptr %3, align 8, !tbaa !4
  store ptr %1, ptr %4, align 8, !tbaa !46
  call void @llvm.lifetime.start.p0(i64 8, ptr %5) #9
  call void @llvm.lifetime.start.p0(i64 4, ptr %6) #9
  call void @llvm.lifetime.start.p0(i64 4, ptr %7) #9
  %9 = load ptr, ptr %3, align 8, !tbaa !4
  %10 = getelementptr inbounds nuw %struct.jit_State, ptr %9, i32 0, i32 6
  %11 = load ptr, ptr %10, align 8, !tbaa !41
  %12 = getelementptr inbounds i32, ptr %11, i64 0
  %13 = load i32, ptr %12, align 4, !tbaa !9
  store i32 %13, ptr %7, align 4, !tbaa !9
  %14 = load i32, ptr %7, align 4, !tbaa !9
  %15 = and i32 %14, 520093696
  %16 = icmp eq i32 %15, 184549376
  br i1 %16, label %17, label %35

17:                                               ; preds = %2
  %18 = load ptr, ptr %4, align 8, !tbaa !46
  %19 = getelementptr inbounds nuw %struct.RecordFFData, ptr %18, i32 0, i32 0
  %20 = load ptr, ptr %19, align 8, !tbaa !40
  %21 = getelementptr inbounds %union.TValue, ptr %20, i64 0
  %22 = getelementptr inbounds nuw %struct.GCRef, ptr %21, i32 0, i32 0
  %23 = load i64, ptr %22, align 8, !tbaa !13
  %24 = and i64 %23, 140737488355327
  %25 = inttoptr i64 %24 to ptr
  %26 = getelementptr inbounds nuw %struct.GCtab, ptr %25, i32 0, i32 7
  %27 = getelementptr inbounds nuw %struct.GCRef, ptr %26, i32 0, i32 0
  %28 = load i64, ptr %27, align 8, !tbaa !13
  %29 = inttoptr i64 %28 to ptr
  store ptr %29, ptr %5, align 8, !tbaa !75
  %30 = load ptr, ptr %3, align 8, !tbaa !4
  %31 = load i32, ptr %7, align 4, !tbaa !9
  %32 = trunc i32 %31 to i16
  call void @lj_ir_set_(ptr noundef %30, i16 noundef zeroext 17675, i16 noundef zeroext %32, i16 noundef zeroext 5)
  %33 = load ptr, ptr %3, align 8, !tbaa !4
  %34 = call i32 @lj_opt_fold(ptr noundef %33)
  store i32 %34, ptr %6, align 4, !tbaa !9
  br label %102

35:                                               ; preds = %2
  %36 = load i32, ptr %7, align 4, !tbaa !9
  %37 = and i32 %36, 520093696
  %38 = icmp eq i32 %37, 201326592
  br i1 %38, label %39, label %57

39:                                               ; preds = %35
  %40 = load ptr, ptr %4, align 8, !tbaa !46
  %41 = getelementptr inbounds nuw %struct.RecordFFData, ptr %40, i32 0, i32 0
  %42 = load ptr, ptr %41, align 8, !tbaa !40
  %43 = getelementptr inbounds %union.TValue, ptr %42, i64 0
  %44 = getelementptr inbounds nuw %struct.GCRef, ptr %43, i32 0, i32 0
  %45 = load i64, ptr %44, align 8, !tbaa !13
  %46 = and i64 %45, 140737488355327
  %47 = inttoptr i64 %46 to ptr
  %48 = getelementptr inbounds nuw %struct.GCudata, ptr %47, i32 0, i32 7
  %49 = getelementptr inbounds nuw %struct.GCRef, ptr %48, i32 0, i32 0
  %50 = load i64, ptr %49, align 8, !tbaa !13
  %51 = inttoptr i64 %50 to ptr
  store ptr %51, ptr %5, align 8, !tbaa !75
  %52 = load ptr, ptr %3, align 8, !tbaa !4
  %53 = load i32, ptr %7, align 4, !tbaa !9
  %54 = trunc i32 %53 to i16
  call void @lj_ir_set_(ptr noundef %52, i16 noundef zeroext 17675, i16 noundef zeroext %54, i16 noundef zeroext 11)
  %55 = load ptr, ptr %3, align 8, !tbaa !4
  %56 = call i32 @lj_opt_fold(ptr noundef %55)
  store i32 %56, ptr %6, align 4, !tbaa !9
  br label %101

57:                                               ; preds = %35
  %58 = load ptr, ptr %3, align 8, !tbaa !4
  %59 = getelementptr inbounds i8, ptr %58, i64 -832
  %60 = getelementptr inbounds nuw %struct.GG_State, ptr %59, i32 0, i32 1
  %61 = getelementptr inbounds nuw %struct.global_State, ptr %60, i32 0, i32 28
  %62 = load ptr, ptr %4, align 8, !tbaa !46
  %63 = getelementptr inbounds nuw %struct.RecordFFData, ptr %62, i32 0, i32 0
  %64 = load ptr, ptr %63, align 8, !tbaa !40
  %65 = getelementptr inbounds %union.TValue, ptr %64, i64 0
  %66 = load i64, ptr %65, align 8, !tbaa !13
  %67 = ashr i64 %66, 47
  %68 = trunc i64 %67 to i32
  %69 = icmp ule i32 %68, -14
  br i1 %69, label %70, label %71

70:                                               ; preds = %57
  br label %80

71:                                               ; preds = %57
  %72 = load ptr, ptr %4, align 8, !tbaa !46
  %73 = getelementptr inbounds nuw %struct.RecordFFData, ptr %72, i32 0, i32 0
  %74 = load ptr, ptr %73, align 8, !tbaa !40
  %75 = getelementptr inbounds %union.TValue, ptr %74, i64 0
  %76 = load i64, ptr %75, align 8, !tbaa !13
  %77 = ashr i64 %76, 47
  %78 = trunc i64 %77 to i32
  %79 = xor i32 %78, -1
  br label %80

80:                                               ; preds = %71, %70
  %81 = phi i32 [ 13, %70 ], [ %79, %71 ]
  %82 = add i32 22, %81
  %83 = zext i32 %82 to i64
  %84 = getelementptr inbounds nuw [39 x %struct.GCRef], ptr %61, i64 0, i64 %83
  %85 = getelementptr inbounds nuw %struct.GCRef, ptr %84, i32 0, i32 0
  %86 = load i64, ptr %85, align 8, !tbaa !78
  %87 = inttoptr i64 %86 to ptr
  store ptr %87, ptr %5, align 8, !tbaa !75
  %88 = load ptr, ptr %5, align 8, !tbaa !75
  %89 = icmp ne ptr %88, null
  br i1 %89, label %90, label %94

90:                                               ; preds = %80
  %91 = load ptr, ptr %3, align 8, !tbaa !4
  %92 = load ptr, ptr %5, align 8, !tbaa !75
  %93 = call i32 @lj_ir_kgc(ptr noundef %91, ptr noundef %92, i32 noundef 11)
  br label %95

94:                                               ; preds = %80
  br label %95

95:                                               ; preds = %94, %90
  %96 = phi i32 [ %93, %90 ], [ 32767, %94 ]
  %97 = load ptr, ptr %3, align 8, !tbaa !4
  %98 = getelementptr inbounds nuw %struct.jit_State, ptr %97, i32 0, i32 6
  %99 = load ptr, ptr %98, align 8, !tbaa !41
  %100 = getelementptr inbounds i32, ptr %99, i64 0
  store i32 %96, ptr %100, align 4, !tbaa !9
  store i32 1, ptr %8, align 4
  br label %128

101:                                              ; preds = %39
  br label %102

102:                                              ; preds = %101, %17
  %103 = load ptr, ptr %3, align 8, !tbaa !4
  %104 = load ptr, ptr %5, align 8, !tbaa !75
  %105 = icmp ne ptr %104, null
  %106 = select i1 %105, i32 9, i32 8
  %107 = shl i32 %106, 8
  %108 = or i32 %107, 139
  %109 = trunc i32 %108 to i16
  %110 = load i32, ptr %6, align 4, !tbaa !9
  %111 = trunc i32 %110 to i16
  %112 = load ptr, ptr %3, align 8, !tbaa !4
  %113 = call i32 @lj_ir_knull(ptr noundef %112, i32 noundef 11)
  %114 = trunc i32 %113 to i16
  call void @lj_ir_set_(ptr noundef %103, i16 noundef zeroext %109, i16 noundef zeroext %111, i16 noundef zeroext %114)
  %115 = load ptr, ptr %3, align 8, !tbaa !4
  %116 = call i32 @lj_opt_fold(ptr noundef %115)
  %117 = load ptr, ptr %5, align 8, !tbaa !75
  %118 = icmp ne ptr %117, null
  br i1 %118, label %119, label %121

119:                                              ; preds = %102
  %120 = load i32, ptr %6, align 4, !tbaa !9
  br label %122

121:                                              ; preds = %102
  br label %122

122:                                              ; preds = %121, %119
  %123 = phi i32 [ %120, %119 ], [ 32767, %121 ]
  %124 = load ptr, ptr %3, align 8, !tbaa !4
  %125 = getelementptr inbounds nuw %struct.jit_State, ptr %124, i32 0, i32 6
  %126 = load ptr, ptr %125, align 8, !tbaa !41
  %127 = getelementptr inbounds i32, ptr %126, i64 0
  store i32 %123, ptr %127, align 4, !tbaa !9
  store i32 0, ptr %8, align 4
  br label %128

128:                                              ; preds = %122, %95
  call void @llvm.lifetime.end.p0(i64 4, ptr %7) #9
  call void @llvm.lifetime.end.p0(i64 4, ptr %6) #9
  call void @llvm.lifetime.end.p0(i64 8, ptr %5) #9
  %129 = load i32, ptr %8, align 4
  switch i32 %129, label %131 [
    i32 0, label %130
    i32 1, label %130
  ]

130:                                              ; preds = %128, %128
  ret void

131:                                              ; preds = %128
  unreachable
}