; Function Attrs: nounwind uwtable
define internal void @recff_debug_getmetatable(ptr noundef %0, ptr noundef readonly captures(none) %1) #0 {
  %3 = getelementptr inbounds nuw i8, ptr %0, i64 160
  %4 = load ptr, ptr %3, align 8, !tbaa !37
  %5 = load i32, ptr %4, align 4, !tbaa !39
  %6 = and i32 %5, 520093696
  switch i32 %6, label %8 [
    i32 184549376, label %23
    i32 201326592, label %7
  ]

7:                                                ; preds = %2
  br label %23

8:                                                ; preds = %2
  %9 = getelementptr inbounds i8, ptr %0, i64 -312
  %10 = load ptr, ptr %1, align 8, !tbaa !36
  %11 = load i64, ptr %10, align 8, !tbaa !4
  %12 = ashr i64 %11, 47
  %13 = icmp ult i64 %12, -13
  %14 = sub nsw i64 21, %12
  %spec.select = select i1 %13, i64 35, i64 %14
  %15 = getelementptr inbounds nuw [39 x %struct.GCRef], ptr %9, i64 0, i64 %spec.select
  %16 = load i64, ptr %15, align 8, !tbaa !67
  %.not = icmp eq i64 %16, 0
  br i1 %.not, label %20, label %17

17:                                               ; preds = %8
  %18 = inttoptr i64 %16 to ptr
  %19 = tail call i32 @lj_ir_kgc(ptr noundef nonnull %0, ptr noundef nonnull %18, i32 noundef 11) #9
  %.pre = load ptr, ptr %3, align 8, !tbaa !37
  br label %20

20:                                               ; preds = %8, %17
  %21 = phi ptr [ %.pre, %17 ], [ %4, %8 ]
  %22 = phi i32 [ %19, %17 ], [ 32767, %8 ]
  store i32 %22, ptr %21, align 4, !tbaa !39
  br label %45

23:                                               ; preds = %2, %7
  %.sink = phi i16 [ 11, %7 ], [ 5, %2 ]
  %24 = load ptr, ptr %1, align 8, !tbaa !36
  %25 = load i64, ptr %24, align 8, !tbaa !4
  %26 = and i64 %25, 140737488355327
  %27 = inttoptr i64 %26 to ptr
  %28 = getelementptr inbounds nuw i8, ptr %27, i64 32
  %29 = load i64, ptr %28, align 8, !tbaa !4
  %30 = trunc i32 %5 to i16
  %31 = getelementptr inbounds nuw i8, ptr %0, i64 184
  %32 = getelementptr inbounds nuw i8, ptr %0, i64 188
  store i16 17675, ptr %32, align 4, !tbaa !4
  store i16 %30, ptr %31, align 8, !tbaa !4
  %33 = getelementptr inbounds nuw i8, ptr %0, i64 186
  store i16 %.sink, ptr %33, align 2, !tbaa !4
  %34 = tail call i32 @lj_opt_fold(ptr noundef nonnull %0) #9
  %.not29 = icmp eq i64 %29, 0
  %35 = select i1 %.not29, i16 2187, i16 2443
  %36 = trunc i32 %34 to i16
  %37 = tail call i32 @lj_ir_knull(ptr noundef nonnull %0, i32 noundef 11) #9
  %38 = trunc i32 %37 to i16
  %39 = getelementptr inbounds nuw i8, ptr %0, i64 184
  %40 = getelementptr inbounds nuw i8, ptr %0, i64 188
  store i16 %35, ptr %40, align 4, !tbaa !4
  store i16 %36, ptr %39, align 8, !tbaa !4
  %41 = getelementptr inbounds nuw i8, ptr %0, i64 186
  store i16 %38, ptr %41, align 2, !tbaa !4
  %42 = tail call i32 @lj_opt_fold(ptr noundef nonnull %0) #9
  %43 = select i1 %.not29, i32 32767, i32 %34
  %44 = load ptr, ptr %3, align 8, !tbaa !37
  store i32 %43, ptr %44, align 4, !tbaa !39
  br label %45

45:                                               ; preds = %23, %20
  ret void
}